target datalayout = "e-m:e-p270:32:32-p271:32:32-p272:64:64-i64:64-i128:128-f80:128-n8:16:32:64-S128"
target triple = "x86_64-pc-linux-gnu"

%"class.clang::ASTUnit" = type { %"class.std::shared_ptr", %"class.llvm::IntrusiveRefCntPtr", %"class.llvm::IntrusiveRefCntPtr.0", %"class.llvm::IntrusiveRefCntPtr.1", %"class.llvm::IntrusiveRefCntPtr.2", %"class.std::unique_ptr", %"class.llvm::IntrusiveRefCntPtr.5", %"class.std::shared_ptr.6", %"class.llvm::IntrusiveRefCntPtr.9", %"class.std::shared_ptr.10", %"class.std::shared_ptr.13", %"class.std::shared_ptr.16", %"class.llvm::IntrusiveRefCntPtr.19", i8, i8, %"class.std::unique_ptr.20", %"class.clang::FileSystemOptions", %"class.std::__cxx11::basic_string", %"class.std::unique_ptr.28", %"class.std::unique_ptr.36", %"class.std::shared_ptr.44", %"class.clang::TrivialModuleLoader", i8, i32, i8, i32, i8, i8, %"class.std::vector", %"class.llvm::DenseMap", %"class.std::__cxx11::basic_string", %"class.llvm::SmallVector", %"class.llvm::SmallVector.50", %"class.llvm::SmallVector.50", i32, i32, i32, %"class.llvm::StringMap", %"class.std::optional", %"class.std::unique_ptr.69", i32, %"class.std::vector.77", i8, %"class.std::shared_ptr.82", %"class.std::unique_ptr.85", %"class.std::vector.93", %"class.llvm::StringMap.98", i32, i32, i32, i8, i32, %"class.clang::ASTUnit::ConcurrencyState" }
%"class.std::shared_ptr" = type { %"class.std::__shared_ptr" }
%"class.std::__shared_ptr" = type { ptr, %"class.std::__shared_count" }
%"class.std::__shared_count" = type { ptr }
%"class.llvm::IntrusiveRefCntPtr" = type { ptr }
%"class.llvm::IntrusiveRefCntPtr.0" = type { ptr }
%"class.llvm::IntrusiveRefCntPtr.1" = type { ptr }
%"class.llvm::IntrusiveRefCntPtr.2" = type { ptr }
%"class.std::unique_ptr" = type { %"struct.std::__uniq_ptr_data" }
%"struct.std::__uniq_ptr_data" = type { %"class.std::__uniq_ptr_impl" }
%"class.std::__uniq_ptr_impl" = type { %"class.std::tuple" }
%"class.std::tuple" = type { %"struct.std::_Tuple_impl" }
%"struct.std::_Tuple_impl" = type { %"struct.std::_Head_base.4" }
%"struct.std::_Head_base.4" = type { ptr }
%"class.llvm::IntrusiveRefCntPtr.5" = type { ptr }
%"class.std::shared_ptr.6" = type { %"class.std::__shared_ptr.7" }
%"class.std::__shared_ptr.7" = type { ptr, %"class.std::__shared_count" }
%"class.llvm::IntrusiveRefCntPtr.9" = type { ptr }
%"class.std::shared_ptr.10" = type { %"class.std::__shared_ptr.11" }
%"class.std::__shared_ptr.11" = type { ptr, %"class.std::__shared_count" }
%"class.std::shared_ptr.13" = type { %"class.std::__shared_ptr.14" }
%"class.std::__shared_ptr.14" = type { ptr, %"class.std::__shared_count" }
%"class.std::shared_ptr.16" = type { %"class.std::__shared_ptr.17" }
%"class.std::__shared_ptr.17" = type { ptr, %"class.std::__shared_count" }
%"class.llvm::IntrusiveRefCntPtr.19" = type { ptr }
%"class.std::unique_ptr.20" = type { %"struct.std::__uniq_ptr_data.21" }
%"struct.std::__uniq_ptr_data.21" = type { %"class.std::__uniq_ptr_impl.22" }
%"class.std::__uniq_ptr_impl.22" = type { %"class.std::tuple.23" }
%"class.std::tuple.23" = type { %"struct.std::_Tuple_impl.24" }
%"struct.std::_Tuple_impl.24" = type { %"struct.std::_Head_base.27" }
%"struct.std::_Head_base.27" = type { ptr }
%"class.clang::FileSystemOptions" = type { %"class.std::__cxx11::basic_string" }
%"class.std::unique_ptr.28" = type { %"struct.std::__uniq_ptr_data.29" }
%"struct.std::__uniq_ptr_data.29" = type { %"class.std::__uniq_ptr_impl.30" }
%"class.std::__uniq_ptr_impl.30" = type { %"class.std::tuple.31" }
%"class.std::tuple.31" = type { %"struct.std::_Tuple_impl.32" }
%"struct.std::_Tuple_impl.32" = type { %"struct.std::_Head_base.35" }
%"struct.std::_Head_base.35" = type { ptr }
%"class.std::unique_ptr.36" = type { %"struct.std::__uniq_ptr_data.37" }
%"struct.std::__uniq_ptr_data.37" = type { %"class.std::__uniq_ptr_impl.38" }
%"class.std::__uniq_ptr_impl.38" = type { %"class.std::tuple.39" }
%"class.std::tuple.39" = type { %"struct.std::_Tuple_impl.40" }
%"struct.std::_Tuple_impl.40" = type { %"struct.std::_Head_base.43" }
%"struct.std::_Head_base.43" = type { ptr }
%"class.std::shared_ptr.44" = type { %"class.std::__shared_ptr.45" }
%"class.std::__shared_ptr.45" = type { ptr, %"class.std::__shared_count" }
%"class.clang::TrivialModuleLoader" = type { %"class.clang::ModuleLoader.base", [6 x i8] }
%"class.clang::ModuleLoader.base" = type <{ ptr, i8, i8 }>
%"class.std::vector" = type { %"struct.std::_Vector_base" }
%"struct.std::_Vector_base" = type { %"struct.std::_Vector_base<clang::Decl *, std::allocator<clang::Decl *>>::_Vector_impl" }
%"struct.std::_Vector_base<clang::Decl *, std::allocator<clang::Decl *>>::_Vector_impl" = type { %"struct.std::_Vector_base<clang::Decl *, std::allocator<clang::Decl *>>::_Vector_impl_data" }
%"struct.std::_Vector_base<clang::Decl *, std::allocator<clang::Decl *>>::_Vector_impl_data" = type { ptr, ptr, ptr }
%"class.llvm::DenseMap" = type <{ ptr, i32, i32, i32, [4 x i8] }>
%"class.std::__cxx11::basic_string" = type { %"struct.std::__cxx11::basic_string<char>::_Alloc_hider", i64, %union.anon }
%"struct.std::__cxx11::basic_string<char>::_Alloc_hider" = type { ptr }
%union.anon = type { i64, [8 x i8] }
%"class.llvm::SmallVector" = type { %"class.llvm::SmallVectorImpl", %"struct.llvm::SmallVectorStorage" }
%"class.llvm::SmallVectorImpl" = type { %"class.llvm::SmallVectorTemplateBase" }
%"class.llvm::SmallVectorTemplateBase" = type { %"class.llvm::SmallVectorTemplateCommon" }
%"class.llvm::SmallVectorTemplateCommon" = type { %"class.llvm::SmallVectorBase" }
%"class.llvm::SmallVectorBase" = type { ptr, i32, i32 }
%"struct.llvm::SmallVectorStorage" = type { [512 x i8] }
%"class.llvm::SmallVector.50" = type { %"class.llvm::SmallVectorImpl.51", %"struct.llvm::SmallVectorStorage.54" }
%"class.llvm::SmallVectorImpl.51" = type { %"class.llvm::SmallVectorTemplateBase.52" }
%"class.llvm::SmallVectorTemplateBase.52" = type { %"class.llvm::SmallVectorTemplateCommon.53" }
%"class.llvm::SmallVectorTemplateCommon.53" = type { %"class.llvm::SmallVectorBase" }
%"struct.llvm::SmallVectorStorage.54" = type { [416 x i8] }
%"class.llvm::StringMap" = type { %"class.llvm::StringMapImpl" }
%"class.llvm::StringMapImpl" = type { ptr, i32, i32, i32, i32 }
%"class.std::optional" = type { %"struct.std::_Optional_base" }
%"struct.std::_Optional_base" = type { %"struct.std::_Optional_payload" }
%"struct.std::_Optional_payload" = type { %"struct.std::_Optional_payload.base", [7 x i8] }
%"struct.std::_Optional_payload.base" = type { %"struct.std::_Optional_payload_base.base" }
%"struct.std::_Optional_payload_base.base" = type { %"union.std::_Optional_payload_base<clang::PrecompiledPreamble>::_Storage", i8 }
%"union.std::_Optional_payload_base<clang::PrecompiledPreamble>::_Storage" = type { %"class.clang::PrecompiledPreamble" }
%"class.clang::PrecompiledPreamble" = type <{ %"class.std::unique_ptr.56", %"class.llvm::StringMap.64", %"class.llvm::StringSet", %"class.std::vector.66", i8, [7 x i8] }>
%"class.std::unique_ptr.56" = type { %"struct.std::__uniq_ptr_data.57" }
%"struct.std::__uniq_ptr_data.57" = type { %"class.std::__uniq_ptr_impl.58" }
%"class.std::__uniq_ptr_impl.58" = type { %"class.std::tuple.59" }
%"class.std::tuple.59" = type { %"struct.std::_Tuple_impl.60" }
%"struct.std::_Tuple_impl.60" = type { %"struct.std::_Head_base.63" }
%"struct.std::_Head_base.63" = type { ptr }
%"class.llvm::StringMap.64" = type { %"class.llvm::StringMapImpl" }
%"class.llvm::StringSet" = type { %"class.llvm::StringMap.65" }
%"class.llvm::StringMap.65" = type { %"class.llvm::StringMapImpl" }
%"class.std::vector.66" = type { %"struct.std::_Vector_base.67" }
%"struct.std::_Vector_base.67" = type { %"struct.std::_Vector_base<char, std::allocator<char>>::_Vector_impl" }
%"struct.std::_Vector_base<char, std::allocator<char>>::_Vector_impl" = type { %"struct.std::_Vector_base<char, std::allocator<char>>::_Vector_impl_data" }
%"struct.std::_Vector_base<char, std::allocator<char>>::_Vector_impl_data" = type { ptr, ptr, ptr }
%"class.std::unique_ptr.69" = type { %"struct.std::__uniq_ptr_data.70" }
%"struct.std::__uniq_ptr_data.70" = type { %"class.std::__uniq_ptr_impl.71" }
%"class.std::__uniq_ptr_impl.71" = type { %"class.std::tuple.72" }
%"class.std::tuple.72" = type { %"struct.std::_Tuple_impl.73" }
%"struct.std::_Tuple_impl.73" = type { %"struct.std::_Head_base.76" }
%"struct.std::_Head_base.76" = type { ptr }
%"class.std::vector.77" = type { %"struct.std::_Vector_base.78" }
%"struct.std::_Vector_base.78" = type { %"struct.std::_Vector_base<clang::LocalDeclID, std::allocator<clang::LocalDeclID>>::_Vector_impl" }
%"struct.std::_Vector_base<clang::LocalDeclID, std::allocator<clang::LocalDeclID>>::_Vector_impl" = type { %"struct.std::_Vector_base<clang::LocalDeclID, std::allocator<clang::LocalDeclID>>::_Vector_impl_data" }
%"struct.std::_Vector_base<clang::LocalDeclID, std::allocator<clang::LocalDeclID>>::_Vector_impl_data" = type { ptr, ptr, ptr }
%"class.std::shared_ptr.82" = type { %"class.std::__shared_ptr.83" }
%"class.std::__shared_ptr.83" = type { ptr, %"class.std::__shared_count" }
%"class.std::unique_ptr.85" = type { %"struct.std::__uniq_ptr_data.86" }
%"struct.std::__uniq_ptr_data.86" = type { %"class.std::__uniq_ptr_impl.87" }
%"class.std::__uniq_ptr_impl.87" = type { %"class.std::tuple.88" }
%"class.std::tuple.88" = type { %"struct.std::_Tuple_impl.89" }
%"struct.std::_Tuple_impl.89" = type { %"struct.std::_Head_base.92" }
%"struct.std::_Head_base.92" = type { ptr }
%"class.std::vector.93" = type { %"struct.std::_Vector_base.94" }
%"struct.std::_Vector_base.94" = type { %"struct.std::_Vector_base<clang::ASTUnit::CachedCodeCompletionResult, std::allocator<clang::ASTUnit::CachedCodeCompletionResult>>::_Vector_impl" }
%"struct.std::_Vector_base<clang::ASTUnit::CachedCodeCompletionResult, std::allocator<clang::ASTUnit::CachedCodeCompletionResult>>::_Vector_impl" = type { %"struct.std::_Vector_base<clang::ASTUnit::CachedCodeCompletionResult, std::allocator<clang::ASTUnit::CachedCodeCompletionResult>>::_Vector_impl_data" }
%"struct.std::_Vector_base<clang::ASTUnit::CachedCodeCompletionResult, std::allocator<clang::ASTUnit::CachedCodeCompletionResult>>::_Vector_impl_data" = type { ptr, ptr, ptr }
%"class.llvm::StringMap.98" = type { %"class.llvm::StringMapImpl" }
%"class.clang::ASTUnit::ConcurrencyState" = type { ptr }
%"class.clang::InputKind" = type { i8, i8, [2 x i8] }
%"class.clang::LangOptionsBase" = type <{ i64, i64, i64, i64, i64, i64, i64, i64, i64, i64, i64, i64, i64, i64, i64, i64, i64, i64, i64, i64, i64, i64, i64, i64, i64, i16, [2 x i8] }>

; Function Attrs: mustprogress nounwind uwtable
define linkonce_odr hidden noundef ptr @_ZNKSt12__shared_ptrIN5clang11LangOptionsELN9__gnu_cxx12_Lock_policyE2EE3getEv(ptr noundef nonnull align 8 dereferenceable(16) %0) #0 comdat align 2 {
  %2 = alloca ptr, align 8
  store ptr %0, ptr %2, align 8
  %3 = load ptr, ptr %2, align 8
  %4 = getelementptr inbounds nuw %"class.std::__shared_ptr", ptr %3, i32 0, i32 0
  %5 = load ptr, ptr %4, align 8
  ret ptr %5
}

; Function Attrs: mustprogress nounwind uwtable
define linkonce_odr hidden noundef ptr @_ZNKSt19__shared_ptr_accessIN5clang11LangOptionsELN9__gnu_cxx12_Lock_policyE2ELb0ELb0EE6_M_getEv(ptr noundef nonnull align 1 dereferenceable(1) %0) #0 comdat align 2 {
  %2 = alloca ptr, align 8
  store ptr %0, ptr %2, align 8
  %3 = load ptr, ptr %2, align 8
  %4 = call noundef ptr @_ZNKSt12__shared_ptrIN5clang11LangOptionsELN9__gnu_cxx12_Lock_policyE2EE3getEv(ptr noundef nonnull align 8 dereferenceable(16) %3) #14
  ret ptr %4
}

; Function Attrs: mustprogress nounwind uwtable
define linkonce_odr hidden noundef nonnull align 8 dereferenceable(841) ptr @_ZNKSt19__shared_ptr_accessIN5clang11LangOptionsELN9__gnu_cxx12_Lock_policyE2ELb0ELb0EEdeEv(ptr noundef nonnull align 1 dereferenceable(1) %0) #0 comdat align 2 {
  %2 = alloca ptr, align 8
  store ptr %0, ptr %2, align 8
  %3 = load ptr, ptr %2, align 8
  br label %4

4:                                                ; preds = %1
  br label %5

5:                                                ; preds = %4
  %6 = call noundef ptr @_ZNKSt19__shared_ptr_accessIN5clang11LangOptionsELN9__gnu_cxx12_Lock_policyE2ELb0ELb0EE6_M_getEv(ptr noundef nonnull align 1 dereferenceable(1) %3) #14
  ret ptr %6
}

; Function Attrs: mustprogress nounwind uwtable
define linkonce_odr hidden void @_ZN5clang9InputKindC2ENS_8LanguageENS0_6FormatEbNS0_14HeaderUnitKindEb(ptr noundef nonnull align 4 dereferenceable(2) %0, i8 noundef zeroext %1, i32 noundef %2, i1 noundef zeroext %3, i32 noundef %4, i1 noundef zeroext %5) unnamed_addr #0 comdat align 2 {
  %7 = alloca ptr, align 8
  %8 = alloca i8, align 1
  %9 = alloca i32, align 4
  %10 = alloca i8, align 1
  %11 = alloca i32, align 4
  %12 = alloca i8, align 1
  store ptr %0, ptr %7, align 8
  store i8 %1, ptr %8, align 1
  store i32 %2, ptr %9, align 4
  %13 = zext i1 %3 to i8
  store i8 %13, ptr %10, align 1
  store i32 %4, ptr %11, align 4
  %14 = zext i1 %5 to i8
  store i8 %14, ptr %12, align 1
  %15 = load ptr, ptr %7, align 8
  %16 = getelementptr inbounds nuw %"class.clang::InputKind", ptr %15, i32 0, i32 0
  %17 = load i8, ptr %8, align 1
  store i8 %17, ptr %16, align 4
  %18 = getelementptr inbounds nuw %"class.clang::InputKind", ptr %15, i32 0, i32 1
  %19 = load i32, ptr %9, align 4
  %20 = trunc i32 %19 to i8
  %21 = load i8, ptr %18, align 1
  %22 = and i8 %20, 7
  %23 = and i8 %21, -8
  %24 = or i8 %23, %22
  store i8 %24, ptr %18, align 1
  %25 = getelementptr inbounds nuw %"class.clang::InputKind", ptr %15, i32 0, i32 1
  %26 = load i8, ptr %10, align 1
  %27 = trunc i8 %26 to i1
  %28 = zext i1 %27 to i32
  %29 = trunc i32 %28 to i8
  %30 = load i8, ptr %25, align 1
  %31 = and i8 %29, 1
  %32 = shl i8 %31, 3
  %33 = and i8 %30, -9
  %34 = or i8 %33, %32
  store i8 %34, ptr %25, align 1
  %35 = getelementptr inbounds nuw %"class.clang::InputKind", ptr %15, i32 0, i32 1
  %36 = load i32, ptr %11, align 4
  %37 = trunc i32 %36 to i8
  %38 = load i8, ptr %35, align 1
  %39 = and i8 %37, 7
  %40 = shl i8 %39, 4
  %41 = and i8 %38, -113
  %42 = or i8 %41, %40
  store i8 %42, ptr %35, align 1
  %43 = getelementptr inbounds nuw %"class.clang::InputKind", ptr %15, i32 0, i32 1
  %44 = load i8, ptr %12, align 1
  %45 = trunc i8 %44 to i1
  %46 = zext i1 %45 to i32
  %47 = trunc i32 %46 to i8
  %48 = load i8, ptr %43, align 1
  %49 = and i8 %47, 1
  %50 = shl i8 %49, 7
  %51 = and i8 %48, 127
  %52 = or i8 %51, %50
  store i8 %52, ptr %43, align 1
  ret void
}

; Function Attrs: mustprogress nounwind uwtable
define linkonce_odr hidden noundef i32 @_ZNK5clang11LangOptions18getCompilingModuleEv(ptr noundef nonnull align 8 dereferenceable(841) %0) #0 comdat align 2 {
  %2 = alloca ptr, align 8
  store ptr %0, ptr %2, align 8
  %3 = load ptr, ptr %2, align 8
  %4 = getelementptr inbounds nuw %"class.clang::LangOptionsBase", ptr %3, i32 0, i32 23
  %5 = load i64, ptr %4, align 8
  %6 = lshr i64 %5, 43
  %7 = and i64 %6, 7
  %8 = trunc i64 %7 to i32
  ret i32 %8
}

; Function Attrs: mustprogress nounwind uwtable
define linkonce_odr hidden noundef nonnull align 8 dereferenceable(841) ptr @_ZNK5clang7ASTUnit11getLangOptsEv(ptr noundef nonnull align 8 dereferenceable(2056) %0) #0 comdat align 2 {
  %2 = alloca ptr, align 8
  store ptr %0, ptr %2, align 8
  %3 = load ptr, ptr %2, align 8
  %4 = getelementptr inbounds nuw %"class.clang::ASTUnit", ptr %3, i32 0, i32 0
  %5 = call noundef nonnull align 8 dereferenceable(841) ptr @_ZNKSt19__shared_ptr_accessIN5clang11LangOptionsELN9__gnu_cxx12_Lock_policyE2ELb0ELb0EEdeEv(ptr noundef nonnull align 1 dereferenceable(1) %4) #14
  ret ptr %5
}

; Function Attrs: mustprogress nounwind uwtable
define dso_local i32 @_ZNK5clang7ASTUnit12getInputKindEv(ptr noundef nonnull align 8 dereferenceable(2056) %0) #0 align 2 {
  %2 = alloca %"class.clang::InputKind", align 4
  %3 = alloca ptr, align 8
  %4 = alloca ptr, align 8
  %5 = alloca i8, align 1
  %6 = alloca i32, align 4
  %7 = alloca i8, align 1
  store ptr %0, ptr %3, align 8
  %8 = load ptr, ptr %3, align 8
  %9 = call noundef nonnull align 8 dereferenceable(841) ptr @_ZNK5clang7ASTUnit11getLangOptsEv(ptr noundef nonnull align 8 dereferenceable(2056) %8)
  store ptr %9, ptr %4, align 8
  %10 = load ptr, ptr %4, align 8
  %11 = getelementptr inbounds nuw %"class.clang::LangOptionsBase", ptr %10, i32 0, i32 5
  %12 = load i64, ptr %11, align 8
  %13 = lshr i64 %12, 61
  %14 = and i64 %13, 1
  %15 = trunc i64 %14 to i32
  %16 = icmp ne i32 %15, 0
  br i1 %16, label %17, label %18

17:                                               ; preds = %1
  store i8 8, ptr %5, align 1
  br label %62

18:                                               ; preds = %1
  %19 = load ptr, ptr %4, align 8
  %20 = getelementptr inbounds nuw %"class.clang::LangOptionsBase", ptr %19, i32 0, i32 7
  %21 = load i64, ptr %20, align 8
  %22 = lshr i64 %21, 36
  %23 = and i64 %22, 1
  %24 = trunc i64 %23 to i32
  %25 = icmp ne i32 %24, 0
  br i1 %25, label %26, label %27

26:                                               ; preds = %18
  store i8 10, ptr %5, align 1
  br label %61

27:                                               ; preds = %18
  %28 = load ptr, ptr %4, align 8
  %29 = getelementptr inbounds nuw %"class.clang::LangOptionsBase", ptr %28, i32 0, i32 11
  %30 = load i64, ptr %29, align 8
  %31 = lshr i64 %30, 8
  %32 = and i64 %31, 1
  %33 = trunc i64 %32 to i32
  %34 = icmp ne i32 %33, 0
  br i1 %34, label %35, label %36

35:                                               ; preds = %27
  store i8 11, ptr %5, align 1
  br label %60

36:                                               ; preds = %27
  %37 = load ptr, ptr %4, align 8
  %38 = load i64, ptr %37, align 8
  %39 = lshr i64 %38, 11
  %40 = and i64 %39, 1
  %41 = trunc i64 %40 to i32
  %42 = icmp ne i32 %41, 0
  br i1 %42, label %43, label %51

43:                                               ; preds = %36
  %44 = load ptr, ptr %4, align 8
  %45 = load i64, ptr %44, align 8
  %46 = lshr i64 %45, 18
  %47 = and i64 %46, 1
  %48 = trunc i64 %47 to i32
  %49 = icmp ne i32 %48, 0
  %50 = select i1 %49, i8 7, i8 5
  store i8 %50, ptr %5, align 1
  br label %59

51:                                               ; preds = %36
  %52 = load ptr, ptr %4, align 8
  %53 = load i64, ptr %52, align 8
  %54 = lshr i64 %53, 18
  %55 = and i64 %54, 1
  %56 = trunc i64 %55 to i32
  %57 = icmp ne i32 %56, 0
  %58 = select i1 %57, i8 6, i8 4
  store i8 %58, ptr %5, align 1
  br label %59

59:                                               ; preds = %51, %43
  br label %60

60:                                               ; preds = %59, %35
  br label %61

61:                                               ; preds = %60, %26
  br label %62

62:                                               ; preds = %61, %17
  store i32 0, ptr %6, align 4
  %63 = load ptr, ptr %4, align 8
  %64 = call noundef i32 @_ZNK5clang11LangOptions18getCompilingModuleEv(ptr noundef nonnull align 8 dereferenceable(841) %63)
  %65 = icmp eq i32 %64, 1
  br i1 %65, label %66, label %67

66:                                               ; preds = %62
  store i32 1, ptr %6, align 4
  br label %67

67:                                               ; preds = %66, %62
  store i8 0, ptr %7, align 1
  %68 = load i8, ptr %5, align 1
  %69 = load i32, ptr %6, align 4
  %70 = load i8, ptr %7, align 1
  %71 = trunc i8 %70 to i1
  call void @_ZN5clang9InputKindC2ENS_8LanguageENS0_6FormatEbNS0_14HeaderUnitKindEb(ptr noundef nonnull align 4 dereferenceable(2) %2, i8 noundef zeroext %68, i32 noundef %69, i1 noundef zeroext %71, i32 noundef 0, i1 noundef zeroext false)
  %72 = load i32, ptr %2, align 4
  ret i32 %72
}