; Function Attrs: mustprogress nofree norecurse nosync nounwind willreturn memory(read, inaccessiblemem: none) uwtable
define dso_local range(i32 4, 272) i32 @_ZNK5clang7ASTUnit12getInputKindEv(ptr noundef nonnull readonly align 8 captures(none) dereferenceable(2056) %0) local_unnamed_addr #10 align 2 {
  %2 = load ptr, ptr %0, align 8
  %3 = getelementptr inbounds nuw i8, ptr %2, i64 40
  %4 = load i64, ptr %3, align 8
  %5 = and i64 %4, 2305843009213693952
  %.not = icmp eq i64 %5, 0
  br i1 %.not, label %6, label %.split11

6:                                                ; preds = %1
  %7 = getelementptr inbounds nuw i8, ptr %2, i64 56
  %8 = load i64, ptr %7, align 8
  %9 = and i64 %8, 68719476736
  %.not12 = icmp eq i64 %9, 0
  br i1 %.not12, label %10, label %.split11

10:                                               ; preds = %6
  %11 = getelementptr inbounds nuw i8, ptr %2, i64 88
  %12 = load i64, ptr %11, align 8
  %13 = and i64 %12, 256
  %.not13 = icmp eq i64 %13, 0
  br i1 %.not13, label %14, label %.split11

14:                                               ; preds = %10
  %15 = load i64, ptr %2, align 8
  %16 = and i64 %15, 2048
  %.not14 = icmp eq i64 %16, 0
  %17 = and i64 %15, 262144
  %.not15 = icmp eq i64 %17, 0
  br i1 %.not14, label %20, label %18

18:                                               ; preds = %14
  %19 = select i1 %.not15, i32 5, i32 7
  br label %.split11

20:                                               ; preds = %14
  %21 = select i1 %.not15, i32 4, i32 6
  br label %.split11

.split11:                                         ; preds = %10, %6, %1, %18, %20
  %.0 = phi i32 [ %19, %18 ], [ %21, %20 ], [ 8, %1 ], [ 10, %6 ], [ 11, %10 ]
  %22 = getelementptr inbounds nuw i8, ptr %2, i64 184
  %23 = load i64, ptr %22, align 8
  %24 = and i64 %23, 61572651155456
  %25 = icmp eq i64 %24, 8796093022208
  %.sroa.3.0.insert.shift = select i1 %25, i32 256, i32 0
  %.sroa.0.0.insert.insert = or disjoint i32 %.sroa.3.0.insert.shift, %.0
  ret i32 %.sroa.0.0.insert.insert
}